; Function Attrs: nounwind uwtable
define dso_local range(i32 -1, 1) i32 @PyRun_AnyFileExFlags(ptr noundef %0, ptr noundef %1, i32 noundef %2, ptr noundef %3) local_unnamed_addr #0 {
  %.not = icmp eq ptr %1, null
  br i1 %.not, label %.thread, label %6

.thread:                                          ; preds = %4
  %5 = tail call i32 @_PyRun_AnyFileObject(ptr noundef %0, ptr noundef null, i32 noundef %2, ptr noundef %3)
  br label %Py_XDECREF.exit

6:                                                ; preds = %4
  %7 = tail call ptr @PyUnicode_DecodeFSDefault(ptr noundef nonnull %1) #8
  %8 = icmp eq ptr %7, null
  br i1 %8, label %9, label %12

9:                                                ; preds = %6
  %10 = tail call align 8 ptr @llvm.threadlocal.address.p0(ptr align 8 @_Py_tss_tstate)
  %11 = load ptr, ptr %10, align 8, !tbaa !4
  tail call fastcc void @_PyErr_PrintEx(ptr noundef %11, i32 noundef 1)
  br label %Py_XDECREF.exit

12:                                               ; preds = %6
  %13 = tail call i32 @_PyRun_AnyFileObject(ptr noundef %0, ptr noundef nonnull %7, i32 noundef %2, ptr noundef %3)
  %14 = load i32, ptr %7, align 8, !tbaa !9
  %.not.i.i = icmp sgt i32 %14, -1
  br i1 %.not.i.i, label %15, label %Py_XDECREF.exit

15:                                               ; preds = %12
  %16 = add nsw i32 %14, -1
  store i32 %16, ptr %7, align 8, !tbaa !9
  %17 = icmp eq i32 %16, 0
  br i1 %17, label %18, label %Py_XDECREF.exit

18:                                               ; preds = %15
  tail call void @_Py_Dealloc(ptr noundef nonnull %7) #8
  br label %Py_XDECREF.exit

Py_XDECREF.exit:                                  ; preds = %18, %15, %12, %.thread, %9
  %.0 = phi i32 [ -1, %9 ], [ %5, %.thread ], [ %13, %12 ], [ %13, %15 ], [ %13, %18 ]
  ret i32 %.0
}